(dp0
I0
(dp1
I3
F0.10405887112131199
sI4
F0.5051156461480326
sI5
F0.32984855854676326
sI6
F0.16667765569326212
sI7
F0.06911326726587609
ssI1
(dp2
I3
F-0.789963568198961
sI4
F0.33481729083560074
sI5
F-0.5630659495091277
sI6
F0.9849321470340955
sI7
F-0.7971231594631808
ssI2
(dp3
I3
F-0.5128423730248128
sI4
F-0.33243097981703895
sI5
F0.9863106503974276
sI6
F0.15177521368917826
sI7
F0.1280073358750591
ssI3
(dp4
I9
F0.6228236371022818
sI10
F-0.09348357067746645
sI11
F-0.7338498622326654
sI12
F-0.0978952114682012
ssI4
(dp5
I9
F-0.3385277900213411
sI10
F0.6951343558668257
sI11
F-0.6678742140392183
sI12
F-0.38668922587090965
ssI5
(dp6
I9
F-0.3442158839905766
sI10
F0.5416703903556818
sI11
F-0.5269042920928272
sI12
F-0.9305966829631732
ssI6
(dp7
I9
F0.02157928405710831
sI10
F-0.6488250907219874
sI11
F-0.07458452460699366
sI12
F0.14710030744905106
ssI7
(dp8
I9
F-0.1761981928372126
sI10
F-0.9769949544525606
sI11
F0.13680859167195802
sI12
F-0.23839000118707446
ssI8
(dp9
I9
F-0.5131014912905391
sI10
F-0.6918047186644432
sI11
F0.47862382937840847
sI12
F0.394141304243597
ss.