(dp0
I0
(dp1
I3
F3.2958574964009695
sI4
F11.008532373938069
sI5
F2.531335190798829
sI6
F-2.163828187487574
sI7
F-8.543452148305349
ssI1
(dp2
I3
F0.21562343248940918
sI4
F-3.3034596749509806
sI5
F-10.9429487389622
sI6
F11.231174054277984
sI7
F-4.570992628415608
ssI2
(dp3
I3
F-0.36302791925369415
sI4
F-3.312310318559962
sI5
F1.7342042272344487
sI6
F-8.084047188330894
sI7
F3.049244572614318
ssI3
(dp4
I9
F-1.1914071532280446
sI10
F0.3109388393423395
sI11
F-3.0659600401701113
sI12
F0.994545716871165
ssI4
(dp5
I9
F-1.0509981684099292
sI10
F6.248771045391103
sI11
F-8.543759178776167
sI12
F0.3334932769959464
ssI5
(dp6
I9
F-4.659384054163484
sI10
F7.176117853451942
sI11
F2.739128925577102
sI12
F-8.17144522788763
ssI6
(dp7
I9
F9.377707292495835
sI10
F-5.952177061942246
sI11
F-5.173493078849311
sI12
F-8.991384739344019
ssI7
(dp8
I9
F-4.322358108730926
sI10
F-5.182164109657515
sI11
F8.422856943437457
sI12
F-1.20570586613521
ssI8
(dp9
I9
F-3.198957704983341
sI10
F-6.284689435008806
sI11
F-0.7026937164338007
sI12
F3.5079409021502306
ss.