(dp0
I0
(dp1
I3
F0.16966032910593146
sI4
F0.7484417568114138
sI5
F0.45682406151750043
sI6
F0.06334129618543938
sI7
F-0.07773346945479484
ssI1
(dp2
I3
F-0.5237887305802755
sI4
F0.2589892196885187
sI5
F-0.760595071161896
sI6
F1.2159005423648854
sI7
F-0.7821934332459877
ssI2
(dp3
I3
F-0.6018834928582669
sI4
F-0.3080816728375071
sI5
F0.9530703262559639
sI6
F0.06860986168455256
sI7
F0.1863103915728426
ssI3
(dp4
I9
F0.3312917458132362
sI10
F0.03189873941787696
sI11
F-0.6155765466253366
sI12
F-0.22526465347548194
ssI4
(dp5
I9
F-0.3943179650684577
sI10
F0.6680499130164589
sI11
F-0.8621433438825038
sI12
F-0.49084522132130004
ssI5
(dp6
I9
F-0.7469812389232386
sI10
F0.6065863378197491
sI11
F-0.4576899237931828
sI12
F-1.125761196610334
ssI6
(dp7
I9
F0.19782131605736347
sI10
F-0.9315987922100067
sI11
F-0.4630240449555855
sI12
F0.08224843433697163
ssI7
(dp8
I9
F-0.5627079800894312
sI10
F-0.8823556137980191
sI11
F0.3015060462510473
sI12
F-0.3826010750377575
ssI8
(dp9
I9
F-0.7916288337212456
sI10
F-0.8324153333100582
sI11
F0.38563873989601705
sI12
F0.17824887680759838
ss.