(dp0
I0
(dp1
I3
F4.1641569387590724
sI4
F19.052474012275088
sI5
F1.796966076507761
sI6
F-2.1686622429338516
sI7
F-14.506834548578754
ssI1
(dp2
I3
F1.731037740921462
sI4
F-11.246584056319083
sI5
F-14.267631581247924
sI6
F18.56626676219403
sI7
F-6.779718149403801
ssI2
(dp3
I3
F-0.5789292046047289
sI4
F-4.623727117124396
sI5
F2.820537764423343
sI6
F-14.557489562386627
sI7
F5.075497817268599
ssI3
(dp4
I9
F-1.051361678166105
sI10
F-0.3848930396055113
sI11
F-5.311402963746255
sI12
F0.11410734993509557
ssI4
(dp5
I9
F-0.9857141543696583
sI10
F13.164772046113976
sI11
F-14.566663220654052
sI12
F1.3634972431158223
ssI5
(dp6
I9
F-4.7171909020025895
sI10
F8.542244540273446
sI11
F6.826692335340944
sI12
F-9.380047625154587
ssI6
(dp7
I9
F14.23796425829706
sI10
F-5.9952449113545665
sI11
F-5.661880303754917
sI12
F-15.177246128442512
ssI7
(dp8
I9
F-4.225835680008245
sI10
F-9.310299919084503
sI11
F13.344701628988544
sI12
F-0.382229191384403
ssI8
(dp9
I9
F-3.1331381822138273
sI10
F-8.604507013536542
sI11
F-2.1233233646964798
sI12
F4.35262568954134
ss.