(dp0
I0
(dp1
I3
F1.3803111053490469
sI4
F4.128154780119829
sI5
F1.6113649679789313
sI6
F-0.870171465489778
sI7
F-2.5363647425295155
ssI1
(dp2
I3
F-0.11837719486504295
sI4
F0.15096748541301044
sI5
F-3.614528699467514
sI6
F3.9936167232450432
sI7
F-2.0816249487209793
ssI2
(dp3
I3
F-0.7323307142631429
sI4
F-1.5189923317374252
sI5
F0.40731991093415804
sI6
F-1.3474185190867378
sI7
F1.2820936608230051
ssI3
(dp4
I9
F-0.0909706310673742
sI10
F0.6711005571002955
sI11
F-1.0074429306457813
sI12
F-0.3549121661577095
ssI4
(dp5
I9
F-0.18615198680458217
sI10
F2.646768080077278
sI11
F-3.2889075023196015
sI12
F-0.7484216354074411
ssI5
(dp6
I9
F-3.215326163143314
sI10
F2.4705293495728515
sI11
F0.6548076244163137
sI12
F-1.4656477575966653
ssI6
(dp7
I9
F2.9956540363718633
sI10
F-3.404399230053275
sI11
F-2.321393373327987
sI12
F0.3020407179615194
ssI7
(dp8
I9
F-2.322805731118009
sI10
F-1.7360896298054422
sI11
F2.828836074957193
sI12
F-0.37347460480630873
ssI8
(dp9
I9
F-0.9932361294187227
sI10
F-1.8683438477666539
sI11
F0.5948313741372777
sI12
F0.14291985232461163
ss.